; Function Attrs: nofree nosync nounwind memory(readwrite, inaccessiblemem: none) uwtable
define range(i32 -2147483647, -2147483648) i32 @Gia_MuxRef_rec(ptr noundef %0, i32 noundef %1) local_unnamed_addr #5 {
  br label %tailrecurse

tailrecurse:                                      ; preds = %Gia_ObjFaninId2p.exit, %2
  %accumulator.tr = phi i32 [ 0, %2 ], [ %46, %Gia_ObjFaninId2p.exit ]
  %.tr26 = phi i32 [ %1, %2 ], [ %43, %Gia_ObjFaninId2p.exit ]
  %3 = getelementptr i8, ptr %0, i64 40
  %.val17 = load ptr, ptr %3, align 8
  %.not.i = icmp eq ptr %.val17, null
  br i1 %.not.i, label %common.ret, label %Gia_ObjIsMuxId.exit

Gia_ObjIsMuxId.exit:                              ; preds = %tailrecurse
  %4 = sext i32 %.tr26 to i64
  %5 = getelementptr inbounds i32, ptr %.val17, i64 %4
  %6 = load i32, ptr %5, align 4
  %.not25 = icmp eq i32 %6, 0
  br i1 %.not25, label %common.ret, label %7

7:                                                ; preds = %Gia_ObjIsMuxId.exit
  %8 = getelementptr i8, ptr %0, i64 32
  %.val = load ptr, ptr %8, align 8
  %9 = getelementptr inbounds %struct.Gia_Obj_t_, ptr %.val, i64 %4
  %10 = getelementptr i8, ptr %0, i64 144
  %.val19 = load ptr, ptr %10, align 8
  %11 = ptrtoint ptr %9 to i64
  %12 = shl nsw i64 %4, 2
  %13 = getelementptr inbounds i8, ptr %.val19, i64 %12
  %14 = load i32, ptr %13, align 4
  %15 = add nsw i32 %14, 1
  store i32 %15, ptr %13, align 4
  %.not15 = icmp eq i32 %14, 0
  br i1 %.not15, label %16, label %common.ret

16:                                               ; preds = %7
  %.val16 = load ptr, ptr %8, align 8
  %17 = ptrtoint ptr %.val16 to i64
  %18 = sub i64 %11, %17
  %19 = sdiv exact i64 %18, 12
  %20 = trunc i64 %19 to i32
  %.val3.i = load i64, ptr %9, align 4
  %21 = trunc i64 %.val3.i to i32
  %22 = and i32 %21, 536870911
  %23 = sub nsw i32 %20, %22
  %24 = tail call i32 @Gia_MuxRef_rec(ptr noundef nonnull %0, i32 noundef %23)
  %.val20 = load ptr, ptr %8, align 8
  %25 = ptrtoint ptr %.val20 to i64
  %26 = sub i64 %11, %25
  %27 = sdiv exact i64 %26, 12
  %28 = trunc i64 %27 to i32
  %.val3.i21 = load i64, ptr %9, align 4
  %29 = lshr i64 %.val3.i21, 32
  %30 = trunc nuw i64 %29 to i32
  %31 = and i32 %30, 536870911
  %32 = sub nsw i32 %28, %31
  %33 = tail call i32 @Gia_MuxRef_rec(ptr noundef nonnull %0, i32 noundef %32)
  %34 = load ptr, ptr %3, align 8
  %.not.i22 = icmp eq ptr %34, null
  br i1 %.not.i22, label %Gia_ObjFaninId2p.exit, label %35

35:                                               ; preds = %16
  %.val8.i = load ptr, ptr %8, align 8
  %36 = ptrtoint ptr %.val8.i to i64
  %37 = sub i64 %11, %36
  %38 = sdiv exact i64 %37, 12
  %sext.i23 = shl i64 %38, 32
  %39 = ashr exact i64 %sext.i23, 30
  %40 = getelementptr inbounds i8, ptr %34, i64 %39
  %41 = load i32, ptr %40, align 4
  %.not7.i = icmp eq i32 %41, 0
  %42 = ashr i32 %41, 1
  %spec.select.i = select i1 %.not7.i, i32 -1, i32 %42
  br label %Gia_ObjFaninId2p.exit

common.ret:                                       ; preds = %Gia_ObjIsMuxId.exit, %7, %tailrecurse
  %accumulator.ret.tr = add i32 0, %accumulator.tr
  ret i32 %accumulator.ret.tr

Gia_ObjFaninId2p.exit:                            ; preds = %16, %35
  %43 = phi i32 [ -1, %16 ], [ %spec.select.i, %35 ]
  %44 = add i32 %24, 1
  %45 = add i32 %44, %33
  %46 = add i32 %45, %accumulator.tr
  br label %tailrecurse
}